target datalayout = "e-m:e-p270:32:32-p271:32:32-p272:64:64-i64:64-i128:128-f80:128-n8:16:32:64-S128"
target triple = "x86_64-pc-linux-gnu"

%struct.jit_State = type { %struct.GCtrace, ptr, ptr, ptr, ptr, ptr, ptr, i32, i32, i32, i8, i8, %struct.IRType1, i8, %struct.FoldState, ptr, i32, i32, i32, i32, i32, i32, i32, [1 x i32], [5 x %union.TValue], [3 x %union.TValue], ptr, i32, i32, i32, i32, ptr, ptr, i32, i32, i8, ptr, i32, i32, i16, [101 x i16], [258 x i32], [15 x i32], [16 x ptr], [64 x %struct.HotPenalty], i32, [16 x %struct.BPropEntry], i32, %struct.ScEvEntry, ptr, i32, i32, i32, ptr, i32, i32, ptr, ptr, ptr, i64, i64, %union.TValue, ptr, i32, i32 }
%struct.GCtrace = type { %struct.GCRef, i8, i8, i16, i32, i32, %struct.GCRef, ptr, i32, i32, ptr, ptr, %struct.GCRef, %struct.MRef, i32, i32, ptr, i32, i16, i16, i16, i16, i16, i16, i16, i8, i8, i8, i8 }
%struct.GCRef = type { i64 }
%struct.MRef = type { i64 }
%struct.IRType1 = type { i8 }
%struct.FoldState = type { %union.IRIns, [2 x %union.IRIns], [2 x %union.IRIns] }
%union.IRIns = type { %struct.GCRef }
%struct.HotPenalty = type { %struct.MRef, i16, i16 }
%struct.BPropEntry = type { i16, i16, i32 }
%struct.ScEvEntry = type { %struct.MRef, i16, i16, i16, i16, %struct.IRType1, i8 }
%union.TValue = type { i64 }
%struct.anon = type { i16, i16, i16, i16 }
%struct.GG_State = type { %struct.lua_State, %struct.global_State, %struct.jit_State, [64 x i16], [243 x ptr], [57 x i32] }
%struct.lua_State = type { %struct.GCRef, i8, i8, i8, i8, %struct.MRef, %struct.GCRef, ptr, ptr, %struct.MRef, %struct.MRef, %struct.GCRef, %struct.GCRef, ptr, i32 }
%struct.global_State = type { ptr, ptr, %struct.GCState, %struct.GCstr, i8, i8, i8, i8, %struct.StrInternState, i32, %struct.GCRef, %struct.SBuf, %union.TValue, %union.TValue, %struct.Node, %union.TValue, %struct.GCupval, i32, i32, ptr, ptr, ptr, i32, i32, %struct.GCRef, %struct.MRef, %struct.MRef, %struct.PRNGState, [39 x %struct.GCRef] }
%struct.GCState = type { i64, i64, i8, i8, i8, i8, i32, %struct.GCRef, %struct.MRef, %struct.GCRef, %struct.GCRef, %struct.GCRef, %struct.GCRef, i64, i64, i32, i32, %struct.MRef }
%struct.GCstr = type { %struct.GCRef, i8, i8, i8, i8, i32, i32, i32 }
%struct.StrInternState = type { ptr, i32, i32, i32, i8, i8, i8, i8, i64 }
%struct.SBuf = type { ptr, ptr, ptr, %struct.MRef }
%struct.Node = type { %union.TValue, %union.TValue, %struct.MRef }
%struct.GCupval = type { %struct.GCRef, i8, i8, i8, i8, %union.anon, %struct.MRef, i32 }
%union.anon = type { %struct.anon.3 }
%struct.anon.3 = type { %struct.GCRef, %struct.GCRef }
%struct.PRNGState = type { [4 x i64] }

; Function Attrs: nounwind uwtable
define internal i32 @fold_fwd_href_tdup(ptr noundef %0) #0 {
  %2 = alloca i32, align 4
  %3 = alloca ptr, align 8
  %4 = alloca %union.TValue, align 8
  %5 = alloca i32, align 4
  store ptr %0, ptr %3, align 8, !tbaa !4
  call void @llvm.lifetime.start.p0(i64 8, ptr %4) #8
  %6 = load ptr, ptr %3, align 8, !tbaa !4
  %7 = getelementptr inbounds nuw %struct.jit_State, ptr %6, i32 0, i32 2
  %8 = load ptr, ptr %7, align 8, !tbaa !53
  %9 = load ptr, ptr %3, align 8, !tbaa !4
  %10 = getelementptr inbounds nuw %struct.jit_State, ptr %9, i32 0, i32 14
  %11 = getelementptr inbounds nuw %struct.FoldState, ptr %10, i32 0, i32 2
  %12 = getelementptr inbounds [2 x %union.IRIns], ptr %11, i64 0, i64 0
  call void @lj_ir_kvalue(ptr noundef %8, ptr noundef %4, ptr noundef %12)
  %13 = load ptr, ptr %3, align 8, !tbaa !4
  %14 = getelementptr inbounds nuw %struct.jit_State, ptr %13, i32 0, i32 2
  %15 = load ptr, ptr %14, align 8, !tbaa !53
  %16 = load ptr, ptr %3, align 8, !tbaa !4
  %17 = getelementptr inbounds nuw %struct.jit_State, ptr %16, i32 0, i32 0
  %18 = getelementptr inbounds nuw %struct.GCtrace, ptr %17, i32 0, i32 7
  %19 = load ptr, ptr %18, align 8, !tbaa !32
  %20 = load ptr, ptr %3, align 8, !tbaa !4
  %21 = getelementptr inbounds nuw %struct.jit_State, ptr %20, i32 0, i32 14
  %22 = getelementptr inbounds nuw %struct.FoldState, ptr %21, i32 0, i32 1
  %23 = getelementptr inbounds [2 x %union.IRIns], ptr %22, i64 0, i64 0
  %24 = getelementptr inbounds nuw %struct.anon, ptr %23, i32 0, i32 0
  %25 = load i16, ptr %24, align 8, !tbaa !29
  %26 = zext i16 %25 to i64
  %27 = getelementptr inbounds nuw %union.IRIns, ptr %19, i64 %26
  %28 = getelementptr inbounds %union.IRIns, ptr %27, i64 1
  %29 = getelementptr inbounds nuw %struct.GCRef, ptr %28, i32 0, i32 0
  %30 = load i64, ptr %29, align 8, !tbaa !29
  %31 = inttoptr i64 %30 to ptr
  %32 = call ptr @lj_tab_get(ptr noundef %15, ptr noundef %31, ptr noundef %4)
  %33 = load ptr, ptr %3, align 8, !tbaa !4
  %34 = getelementptr inbounds i8, ptr %33, i64 -832
  %35 = getelementptr inbounds nuw %struct.GG_State, ptr %34, i32 0, i32 1
  %36 = getelementptr inbounds nuw %struct.global_State, ptr %35, i32 0, i32 14
  %37 = getelementptr inbounds nuw %struct.Node, ptr %36, i32 0, i32 0
  %38 = icmp eq ptr %32, %37
  br i1 %38, label %39, label %51

39:                                               ; preds = %1
  %40 = load ptr, ptr %3, align 8, !tbaa !4
  %41 = call i32 @lj_opt_fwd_href_nokey(ptr noundef %40)
  %42 = icmp ne i32 %41, 0
  br i1 %42, label %43, label %51

43:                                               ; preds = %39
  %44 = load ptr, ptr %3, align 8, !tbaa !4
  %45 = load ptr, ptr %3, align 8, !tbaa !4
  %46 = getelementptr inbounds i8, ptr %45, i64 -832
  %47 = getelementptr inbounds nuw %struct.GG_State, ptr %46, i32 0, i32 1
  %48 = getelementptr inbounds nuw %struct.global_State, ptr %47, i32 0, i32 14
  %49 = getelementptr inbounds nuw %struct.Node, ptr %48, i32 0, i32 0
  %50 = call i32 @lj_ir_kptr_(ptr noundef %44, i32 noundef 26, ptr noundef %49)
  store i32 %50, ptr %2, align 4
  store i32 1, ptr %5, align 4
  br label %52

51:                                               ; preds = %39, %1
  store i32 0, ptr %2, align 4
  store i32 1, ptr %5, align 4
  br label %52

52:                                               ; preds = %51, %43
  call void @llvm.lifetime.end.p0(i64 8, ptr %4) #8
  %53 = load i32, ptr %2, align 4
  ret i32 %53
}