; Function Attrs: nounwind uwtable
define internal i32 @fold_fwd_href_tdup(ptr noundef %0) #0 {
  %2 = alloca %union.TValue, align 8
  call void @llvm.lifetime.start.p0(i64 8, ptr nonnull %2) #12
  %3 = getelementptr inbounds nuw i8, ptr %0, i64 128
  %4 = load ptr, ptr %3, align 8, !tbaa !44
  %5 = getelementptr inbounds nuw i8, ptr %0, i64 208
  call void @lj_ir_kvalue(ptr noundef %4, ptr noundef nonnull %2, ptr noundef nonnull %5) #12
  %6 = load ptr, ptr %3, align 8, !tbaa !44
  %7 = getelementptr inbounds nuw i8, ptr %0, i64 32
  %8 = load ptr, ptr %7, align 8, !tbaa !30
  %9 = getelementptr inbounds nuw i8, ptr %0, i64 192
  %10 = load i16, ptr %9, align 8, !tbaa !28
  %11 = zext i16 %10 to i64
  %12 = getelementptr inbounds nuw %union.IRIns, ptr %8, i64 %11
  %13 = getelementptr inbounds nuw i8, ptr %12, i64 8
  %14 = load i64, ptr %13, align 8, !tbaa !28
  %15 = inttoptr i64 %14 to ptr
  %16 = call ptr @lj_tab_get(ptr noundef %6, ptr noundef %15, ptr noundef nonnull %2) #12
  %17 = getelementptr inbounds i8, ptr %0, i64 -488
  %18 = icmp eq ptr %16, %17
  br i1 %18, label %19, label %23

19:                                               ; preds = %1
  %20 = call i32 @lj_opt_fwd_href_nokey(ptr noundef nonnull %0) #12
  %.not = icmp eq i32 %20, 0
  br i1 %.not, label %23, label %21

21:                                               ; preds = %19
  %22 = call i32 @lj_ir_kptr_(ptr noundef nonnull %0, i32 noundef 26, ptr noundef nonnull %17) #12
  br label %23

23:                                               ; preds = %1, %19, %21
  %.0 = phi i32 [ %22, %21 ], [ 0, %19 ], [ 0, %1 ]
  call void @llvm.lifetime.end.p0(i64 8, ptr nonnull %2) #12
  ret i32 %.0
}